(dp0
S'tweets'
p1
(lp2
sS'sumVectors'
p3
(lp4
sS'finalVector'
p5
cnumpy.core.multiarray
_reconstruct
p6
(cnumpy
ndarray
p7
(I0
tp8
S'b'
p9
tp10
Rp11
(I1
(I0
tp12
cnumpy
dtype
p13
(S'f8'
p14
I0
I1
tp15
Rp16
(I3
S'<'
p17
NNNI-1
I-1
I0
tp18
bI00
S''
p19
tp20
bsS'words'
p21
(lp22
s.